target datalayout = "e-m:e-p270:32:32-p271:32:32-p272:64:64-i64:64-i128:128-f80:128-n8:16:32:64-S128"
target triple = "x86_64-pc-linux-gnu"

%class.QString = type { %struct.QArrayDataPointer }
%struct.QArrayDataPointer = type { ptr, ptr, i64 }
%class.DisplayFilterExpressionDialog = type { %class.GeometryStateDialog, ptr, ptr, i32, ptr, %class.QString }
%class.GeometryStateDialog = type { %class.QDialog, %class.QString }
%class.QDialog = type { %class.QWidget }
%class.QWidget = type { %class.QObject, %class.QPaintDevice.base, ptr }
%class.QObject = type { ptr, %class.QScopedPointer }
%class.QScopedPointer = type { ptr }
%class.QPaintDevice.base = type <{ ptr, i16 }>
%class.Ui_DisplayFilterExpressionDialog = type { ptr, ptr, ptr, ptr, ptr, ptr, ptr, ptr, ptr, ptr, ptr, ptr, ptr, ptr, ptr, ptr, ptr, ptr, ptr, ptr, ptr, ptr, ptr, ptr, ptr, ptr, ptr, ptr, ptr, ptr, ptr, ptr }

; Function Attrs: mustprogress uwtable
define void @_ZN29DisplayFilterExpressionDialog8fillTreeEv(ptr noundef nonnull align 8 dereferenceable(120) %0) #0 align 2 {
  %2 = alloca ptr, align 8
  store ptr %0, ptr %2, align 8
  %3 = load ptr, ptr %2, align 8
  %4 = getelementptr inbounds %class.DisplayFilterExpressionDialog, ptr %3, i32 0, i32 1
  %5 = load ptr, ptr %4, align 8
  call void @_ZN7QObject11deleteLaterEv(ptr noundef nonnull align 8 dereferenceable(16) %5)
  %6 = getelementptr inbounds %class.DisplayFilterExpressionDialog, ptr %3, i32 0, i32 1
  store ptr null, ptr %6, align 8
  %7 = getelementptr inbounds %class.DisplayFilterExpressionDialog, ptr %3, i32 0, i32 2
  %8 = load ptr, ptr %7, align 8
  %9 = getelementptr inbounds %class.Ui_DisplayFilterExpressionDialog, ptr %8, i32 0, i32 7
  %10 = load ptr, ptr %9, align 8
  call void @_ZN9QLineEdit11setReadOnlyEb(ptr noundef nonnull align 8 dereferenceable(40) %10, i1 noundef zeroext false)
  ret void
}