; Function Attrs: mustprogress uwtable
define void @_ZN29DisplayFilterExpressionDialog8fillTreeEv(ptr nocapture noundef nonnull align 8 dereferenceable(120) %0) #0 align 2 {
  %2 = getelementptr inbounds i8, ptr %0, i64 64
  %3 = load ptr, ptr %2, align 8
  tail call void @_ZN7QObject11deleteLaterEv(ptr noundef nonnull align 8 dereferenceable(16) %3)
  store ptr null, ptr %2, align 8
  %4 = getelementptr inbounds i8, ptr %0, i64 72
  %5 = load ptr, ptr %4, align 8
  %6 = getelementptr inbounds i8, ptr %5, i64 56
  %7 = load ptr, ptr %6, align 8
  tail call void @_ZN9QLineEdit11setReadOnlyEb(ptr noundef nonnull align 8 dereferenceable(40) %7, i1 noundef zeroext false)
  ret void
}